; ModuleID = '38/821.c'
source_filename = "38/821.c"
target datalayout = "e-m:e-p270:32:32-p271:32:32-p272:64:64-i64:64-f80:128-n8:16:32:64-S128"
target triple = "x86_64-pc-linux-gnu"

@.str = private unnamed_addr constant [3 x i8] c"%d\00", align 1
@.str.1 = private unnamed_addr constant [4 x i8] c"%lf\00", align 1
@.str.2 = private unnamed_addr constant [7 x i8] c"%.5lf\0A\00", align 1

; Function Attrs: noinline nounwind uwtable
define dso_local i32 @main() #0 {
  %1 = alloca i32, align 4
  %2 = alloca i32, align 4
  %3 = alloca i32, align 4
  %4 = alloca i32, align 4
  %5 = alloca i32, align 4
  %6 = alloca i32, align 4
  %7 = alloca [100 x double], align 16
  %8 = alloca double, align 8
  %9 = alloca double, align 8
  %10 = alloca double, align 8
  %11 = alloca double, align 8
  store i32 0, i32* %1, align 4
  %12 = call i32 (i8*, ...) @__isoc99_scanf(i8* getelementptr inbounds ([3 x i8], [3 x i8]* @.str, i64 0, i64 0), i32* %5)
  store i32 0, i32* %3, align 4
  br label %13

13:                                               ; preds = %75, %0
  %14 = load i32, i32* %3, align 4
  %15 = load i32, i32* %5, align 4
  %16 = icmp slt i32 %14, %15
  br i1 %16, label %17, label %78

17:                                               ; preds = %13
  store double 0.000000e+00, double* %8, align 8
  store double 0.000000e+00, double* %10, align 8
  %18 = call i32 (i8*, ...) @__isoc99_scanf(i8* getelementptr inbounds ([3 x i8], [3 x i8]* @.str, i64 0, i64 0), i32* %6)
  store i32 0, i32* %2, align 4
  br label %19

19:                                               ; preds = %34, %17
  %20 = load i32, i32* %2, align 4
  %21 = load i32, i32* %6, align 4
  %22 = icmp slt i32 %20, %21
  br i1 %22, label %23, label %37

23:                                               ; preds = %19
  %24 = load i32, i32* %2, align 4
  %25 = sext i32 %24 to i64
  %26 = getelementptr inbounds [100 x double], [100 x double]* %7, i64 0, i64 %25
  %27 = call i32 (i8*, ...) @__isoc99_scanf(i8* getelementptr inbounds ([4 x i8], [4 x i8]* @.str.1, i64 0, i64 0), double* %26)
  %28 = load i32, i32* %2, align 4
  %29 = sext i32 %28 to i64
  %30 = getelementptr inbounds [100 x double], [100 x double]* %7, i64 0, i64 %29
  %31 = load double, double* %30, align 8
  %32 = load double, double* %8, align 8
  %33 = fadd double %32, %31
  store double %33, double* %8, align 8
  br label %34

34:                                               ; preds = %23
  %35 = load i32, i32* %2, align 4
  %36 = add nsw i32 %35, 1
  store i32 %36, i32* %2, align 4
  br label %19

37:                                               ; preds = %19
  store i32 0, i32* %2, align 4
  br label %38

38:                                               ; preds = %64, %37
  %39 = load i32, i32* %2, align 4
  %40 = load i32, i32* %6, align 4
  %41 = icmp slt i32 %39, %40
  br i1 %41, label %42, label %67

42:                                               ; preds = %38
  %43 = load i32, i32* %2, align 4
  %44 = sext i32 %43 to i64
  %45 = getelementptr inbounds [100 x double], [100 x double]* %7, i64 0, i64 %44
  %46 = load double, double* %45, align 8
  %47 = load double, double* %8, align 8
  %48 = load i32, i32* %6, align 4
  %49 = sitofp i32 %48 to double
  %50 = fdiv double %47, %49
  %51 = fsub double %46, %50
  %52 = load i32, i32* %2, align 4
  %53 = sext i32 %52 to i64
  %54 = getelementptr inbounds [100 x double], [100 x double]* %7, i64 0, i64 %53
  %55 = load double, double* %54, align 8
  %56 = load double, double* %8, align 8
  %57 = load i32, i32* %6, align 4
  %58 = sitofp i32 %57 to double
  %59 = fdiv double %56, %58
  %60 = fsub double %55, %59
  %61 = fmul double %51, %60
  %62 = load double, double* %10, align 8
  %63 = fadd double %62, %61
  store double %63, double* %10, align 8
  br label %64

64:                                               ; preds = %42
  %65 = load i32, i32* %2, align 4
  %66 = add nsw i32 %65, 1
  store i32 %66, i32* %2, align 4
  br label %38

67:                                               ; preds = %38
  %68 = load double, double* %10, align 8
  %69 = load i32, i32* %6, align 4
  %70 = sitofp i32 %69 to double
  %71 = fdiv double %68, %70
  %72 = call double @sqrt(double %71) #3
  store double %72, double* %11, align 8
  %73 = load double, double* %11, align 8
  %74 = call i32 (i8*, ...) @printf(i8* getelementptr inbounds ([7 x i8], [7 x i8]* @.str.2, i64 0, i64 0), double %73)
  br label %75

75:                                               ; preds = %67
  %76 = load i32, i32* %3, align 4
  %77 = add nsw i32 %76, 1
  store i32 %77, i32* %3, align 4
  br label %13

78:                                               ; preds = %13
  ret i32 0
}

declare dso_local i32 @__isoc99_scanf(i8*, ...) #1

; Function Attrs: nounwind
declare dso_local double @sqrt(double) #2

declare dso_local i32 @printf(i8*, ...) #1


!llvm.module.flags = !{!0}
!llvm.ident = !{!1}

!0 = !{i32 1, !"wchar_size", i32 4}
!1 = !{!"clang version 10.0.0-4ubuntu1 "}
